target datalayout = "e-m:e-p270:32:32-p271:32:32-p272:64:64-i64:64-i128:128-f80:128-n8:16:32:64-S128"
target triple = "x86_64-pc-linux-gnu"

; Function Attrs: nounwind uwtable
define internal void @_collection_changed_destroy_callback(ptr noundef %0, i32 noundef %1, i32 noundef %2, ptr noundef %3, i32 noundef %4, ptr noundef %5) #0 {
  %7 = alloca ptr, align 8
  %8 = alloca i32, align 4
  %9 = alloca i32, align 4
  %10 = alloca ptr, align 8
  %11 = alloca i32, align 4
  %12 = alloca ptr, align 8
  store ptr %0, ptr %7, align 8, !tbaa !37
  store i32 %1, ptr %8, align 4, !tbaa !26
  store i32 %2, ptr %9, align 4, !tbaa !26
  store ptr %3, ptr %10, align 8, !tbaa !37
  store i32 %4, ptr %11, align 4, !tbaa !26
  store ptr %5, ptr %12, align 8, !tbaa !37
  %13 = load ptr, ptr %10, align 8, !tbaa !37
  %14 = icmp ne ptr %13, null
  br i1 %14, label %15, label %17

15:                                               ; preds = %6
  %16 = load ptr, ptr %10, align 8, !tbaa !37
  call void @g_list_free(ptr noundef %16)
  store ptr null, ptr %10, align 8, !tbaa !37
  br label %17

17:                                               ; preds = %15, %6
  ret void
}