; Function Attrs: nounwind uwtable
define internal void @_collection_changed_destroy_callback(ptr readnone captures(none) %0, i32 %1, i32 %2, ptr noundef %3, i32 %4, ptr readnone captures(none) %5) #0 {
  %.not = icmp eq ptr %3, null
  br i1 %.not, label %8, label %7

7:                                                ; preds = %6
  tail call void @g_list_free(ptr noundef nonnull %3) #11
  br label %8

8:                                                ; preds = %7, %6
  ret void
}